target datalayout = "e-m:e-p270:32:32-p271:32:32-p272:64:64-i64:64-i128:128-f80:128-n8:16:32:64-S128"
target triple = "x86_64-pc-linux-gnu"

%struct.Vec_Ptr_t_ = type { i32, i32, ptr }

@Dau_EnumLift.pBuffer = internal global [64 x i8] zeroinitializer, align 16
@Dau_EnumLift2.pBuffer = internal global [64 x i8] zeroinitializer, align 16
@.str.1 = private unnamed_addr constant [2 x i8] c"*\00", align 1
@.str.2 = private unnamed_addr constant [1 x i8] zeroinitializer, align 1
@.str.3 = private unnamed_addr constant [2 x i8] c"!\00", align 1
@Dau_EnumCombineThree.pBuffer = internal global [256 x i8] zeroinitializer, align 16
@.str.4 = private unnamed_addr constant [19 x i8] c"%s%c%s%s%s%s%s%s%c\00", align 1

; Function Attrs: inlinehint nounwind uwtable
define internal void @Vec_PtrGrow(ptr noundef %0, i32 noundef %1) #3 {
  %3 = alloca ptr, align 8
  %4 = alloca i32, align 4
  store ptr %0, ptr %3, align 8, !tbaa !14
  store i32 %1, ptr %4, align 4, !tbaa !8
  %5 = load ptr, ptr %3, align 8, !tbaa !14
  %6 = getelementptr inbounds nuw %struct.Vec_Ptr_t_, ptr %5, i32 0, i32 0
  %7 = load i32, ptr %6, align 8, !tbaa !19
  %8 = load i32, ptr %4, align 4, !tbaa !8
  %9 = icmp sge i32 %7, %8
  br i1 %9, label %10, label %11

10:                                               ; preds = %2
  br label %36

11:                                               ; preds = %2
  %12 = load ptr, ptr %3, align 8, !tbaa !14
  %13 = getelementptr inbounds nuw %struct.Vec_Ptr_t_, ptr %12, i32 0, i32 2
  %14 = load ptr, ptr %13, align 8, !tbaa !20
  %15 = icmp ne ptr %14, null
  br i1 %15, label %16, label %24

16:                                               ; preds = %11
  %17 = load ptr, ptr %3, align 8, !tbaa !14
  %18 = getelementptr inbounds nuw %struct.Vec_Ptr_t_, ptr %17, i32 0, i32 2
  %19 = load ptr, ptr %18, align 8, !tbaa !20
  %20 = load i32, ptr %4, align 4, !tbaa !8
  %21 = sext i32 %20 to i64
  %22 = mul i64 8, %21
  %23 = call ptr @realloc(ptr noundef %19, i64 noundef %22) #11
  br label %29

24:                                               ; preds = %11
  %25 = load i32, ptr %4, align 4, !tbaa !8
  %26 = sext i32 %25 to i64
  %27 = mul i64 8, %26
  %28 = call noalias ptr @malloc(i64 noundef %27) #10
  br label %29

29:                                               ; preds = %24, %16
  %30 = phi ptr [ %23, %16 ], [ %28, %24 ]
  %31 = load ptr, ptr %3, align 8, !tbaa !14
  %32 = getelementptr inbounds nuw %struct.Vec_Ptr_t_, ptr %31, i32 0, i32 2
  store ptr %30, ptr %32, align 8, !tbaa !20
  %33 = load i32, ptr %4, align 4, !tbaa !8
  %34 = load ptr, ptr %3, align 8, !tbaa !14
  %35 = getelementptr inbounds nuw %struct.Vec_Ptr_t_, ptr %34, i32 0, i32 0
  store i32 %33, ptr %35, align 8, !tbaa !19
  br label %36

36:                                               ; preds = %29, %10
  ret void
}

; Function Attrs: inlinehint nounwind uwtable
define internal void @Vec_PtrPush(ptr noundef %0, ptr noundef %1) #3 {
  %3 = alloca ptr, align 8
  %4 = alloca ptr, align 8
  store ptr %0, ptr %3, align 8, !tbaa !14
  store ptr %1, ptr %4, align 8, !tbaa !16
  %5 = load ptr, ptr %3, align 8, !tbaa !14
  %6 = getelementptr inbounds nuw %struct.Vec_Ptr_t_, ptr %5, i32 0, i32 1
  %7 = load i32, ptr %6, align 4, !tbaa !17
  %8 = load ptr, ptr %3, align 8, !tbaa !14
  %9 = getelementptr inbounds nuw %struct.Vec_Ptr_t_, ptr %8, i32 0, i32 0
  %10 = load i32, ptr %9, align 8, !tbaa !19
  %11 = icmp eq i32 %7, %10
  br i1 %11, label %12, label %26

12:                                               ; preds = %2
  %13 = load ptr, ptr %3, align 8, !tbaa !14
  %14 = getelementptr inbounds nuw %struct.Vec_Ptr_t_, ptr %13, i32 0, i32 0
  %15 = load i32, ptr %14, align 8, !tbaa !19
  %16 = icmp slt i32 %15, 16
  br i1 %16, label %17, label %19

17:                                               ; preds = %12
  %18 = load ptr, ptr %3, align 8, !tbaa !14
  call void @Vec_PtrGrow(ptr noundef %18, i32 noundef 16)
  br label %25

19:                                               ; preds = %12
  %20 = load ptr, ptr %3, align 8, !tbaa !14
  %21 = load ptr, ptr %3, align 8, !tbaa !14
  %22 = getelementptr inbounds nuw %struct.Vec_Ptr_t_, ptr %21, i32 0, i32 0
  %23 = load i32, ptr %22, align 8, !tbaa !19
  %24 = mul nsw i32 2, %23
  call void @Vec_PtrGrow(ptr noundef %20, i32 noundef %24)
  br label %25

25:                                               ; preds = %19, %17
  br label %26

26:                                               ; preds = %25, %2
  %27 = load ptr, ptr %4, align 8, !tbaa !16
  %28 = load ptr, ptr %3, align 8, !tbaa !14
  %29 = getelementptr inbounds nuw %struct.Vec_Ptr_t_, ptr %28, i32 0, i32 2
  %30 = load ptr, ptr %29, align 8, !tbaa !20
  %31 = load ptr, ptr %3, align 8, !tbaa !14
  %32 = getelementptr inbounds nuw %struct.Vec_Ptr_t_, ptr %31, i32 0, i32 1
  %33 = load i32, ptr %32, align 4, !tbaa !17
  %34 = add nsw i32 %33, 1
  store i32 %34, ptr %32, align 4, !tbaa !17
  %35 = sext i32 %33 to i64
  %36 = getelementptr inbounds ptr, ptr %30, i64 %35
  store ptr %27, ptr %36, align 8, !tbaa !16
  ret void
}

; Function Attrs: inlinehint nounwind uwtable
define internal ptr @Abc_UtilStrsav(ptr noundef %0) #3 {
  %2 = alloca ptr, align 8
  store ptr %0, ptr %2, align 8, !tbaa !3
  %3 = load ptr, ptr %2, align 8, !tbaa !3
  %4 = icmp ne ptr %3, null
  br i1 %4, label %5, label %13

5:                                                ; preds = %1
  %6 = load ptr, ptr %2, align 8, !tbaa !3
  %7 = call i64 @strlen(ptr noundef %6) #9
  %8 = add i64 %7, 1
  %9 = mul i64 1, %8
  %10 = call noalias ptr @malloc(i64 noundef %9) #10
  %11 = load ptr, ptr %2, align 8, !tbaa !3
  %12 = call ptr @strcpy(ptr noundef %10, ptr noundef %11) #8
  br label %14

13:                                               ; preds = %1
  br label %14

14:                                               ; preds = %13, %5
  %15 = phi ptr [ %12, %5 ], [ null, %13 ]
  ret ptr %15
}

; Function Attrs: nounwind uwtable
define ptr @Dau_EnumLift2(ptr noundef %0, i32 noundef %1) #0 {
  %3 = alloca ptr, align 8
  %4 = alloca i32, align 4
  %5 = alloca ptr, align 8
  store ptr %0, ptr %3, align 8, !tbaa !3
  store i32 %1, ptr %4, align 4, !tbaa !8
  call void @llvm.lifetime.start.p0(i64 8, ptr %5) #8
  store ptr @Dau_EnumLift2.pBuffer, ptr %5, align 8, !tbaa !3
  br label %6

6:                                                ; preds = %34, %2
  %7 = load ptr, ptr %3, align 8, !tbaa !3
  %8 = load i8, ptr %7, align 1, !tbaa !10
  %9 = icmp ne i8 %8, 0
  br i1 %9, label %10, label %39

10:                                               ; preds = %6
  %11 = load ptr, ptr %3, align 8, !tbaa !3
  %12 = load i8, ptr %11, align 1, !tbaa !10
  %13 = sext i8 %12 to i32
  %14 = icmp sge i32 %13, 97
  br i1 %14, label %15, label %26

15:                                               ; preds = %10
  %16 = load ptr, ptr %3, align 8, !tbaa !3
  %17 = load i8, ptr %16, align 1, !tbaa !10
  %18 = sext i8 %17 to i32
  %19 = icmp sle i32 %18, 122
  br i1 %19, label %20, label %26

20:                                               ; preds = %15
  %21 = load ptr, ptr %3, align 8, !tbaa !3
  %22 = load i8, ptr %21, align 1, !tbaa !10
  %23 = sext i8 %22 to i32
  %24 = load i32, ptr %4, align 4, !tbaa !8
  %25 = add nsw i32 %23, %24
  br label %30

26:                                               ; preds = %15, %10
  %27 = load ptr, ptr %3, align 8, !tbaa !3
  %28 = load i8, ptr %27, align 1, !tbaa !10
  %29 = sext i8 %28 to i32
  br label %30

30:                                               ; preds = %26, %20
  %31 = phi i32 [ %25, %20 ], [ %29, %26 ]
  %32 = trunc i32 %31 to i8
  %33 = load ptr, ptr %5, align 8, !tbaa !3
  store i8 %32, ptr %33, align 1, !tbaa !10
  br label %34

34:                                               ; preds = %30
  %35 = load ptr, ptr %5, align 8, !tbaa !3
  %36 = getelementptr inbounds nuw i8, ptr %35, i32 1
  store ptr %36, ptr %5, align 8, !tbaa !3
  %37 = load ptr, ptr %3, align 8, !tbaa !3
  %38 = getelementptr inbounds nuw i8, ptr %37, i32 1
  store ptr %38, ptr %3, align 8, !tbaa !3
  br label %6, !llvm.loop !13

39:                                               ; preds = %6
  %40 = load ptr, ptr %5, align 8, !tbaa !3
  store i8 0, ptr %40, align 1, !tbaa !10
  call void @llvm.lifetime.end.p0(i64 8, ptr %5) #8
  ret ptr @Dau_EnumLift2.pBuffer
}

; Function Attrs: nounwind uwtable
define ptr @Dau_EnumLift(ptr noundef %0, i32 noundef %1) #0 {
  %3 = alloca ptr, align 8
  %4 = alloca i32, align 4
  %5 = alloca ptr, align 8
  store ptr %0, ptr %3, align 8, !tbaa !3
  store i32 %1, ptr %4, align 4, !tbaa !8
  call void @llvm.lifetime.start.p0(i64 8, ptr %5) #8
  store ptr @Dau_EnumLift.pBuffer, ptr %5, align 8, !tbaa !3
  br label %6

6:                                                ; preds = %34, %2
  %7 = load ptr, ptr %3, align 8, !tbaa !3
  %8 = load i8, ptr %7, align 1, !tbaa !10
  %9 = icmp ne i8 %8, 0
  br i1 %9, label %10, label %39

10:                                               ; preds = %6
  %11 = load ptr, ptr %3, align 8, !tbaa !3
  %12 = load i8, ptr %11, align 1, !tbaa !10
  %13 = sext i8 %12 to i32
  %14 = icmp sge i32 %13, 97
  br i1 %14, label %15, label %26

15:                                               ; preds = %10
  %16 = load ptr, ptr %3, align 8, !tbaa !3
  %17 = load i8, ptr %16, align 1, !tbaa !10
  %18 = sext i8 %17 to i32
  %19 = icmp sle i32 %18, 122
  br i1 %19, label %20, label %26

20:                                               ; preds = %15
  %21 = load ptr, ptr %3, align 8, !tbaa !3
  %22 = load i8, ptr %21, align 1, !tbaa !10
  %23 = sext i8 %22 to i32
  %24 = load i32, ptr %4, align 4, !tbaa !8
  %25 = add nsw i32 %23, %24
  br label %30

26:                                               ; preds = %15, %10
  %27 = load ptr, ptr %3, align 8, !tbaa !3
  %28 = load i8, ptr %27, align 1, !tbaa !10
  %29 = sext i8 %28 to i32
  br label %30

30:                                               ; preds = %26, %20
  %31 = phi i32 [ %25, %20 ], [ %29, %26 ]
  %32 = trunc i32 %31 to i8
  %33 = load ptr, ptr %5, align 8, !tbaa !3
  store i8 %32, ptr %33, align 1, !tbaa !10
  br label %34

34:                                               ; preds = %30
  %35 = load ptr, ptr %5, align 8, !tbaa !3
  %36 = getelementptr inbounds nuw i8, ptr %35, i32 1
  store ptr %36, ptr %5, align 8, !tbaa !3
  %37 = load ptr, ptr %3, align 8, !tbaa !3
  %38 = getelementptr inbounds nuw i8, ptr %37, i32 1
  store ptr %38, ptr %3, align 8, !tbaa !3
  br label %6, !llvm.loop !11

39:                                               ; preds = %6
  %40 = load ptr, ptr %5, align 8, !tbaa !3
  store i8 0, ptr %40, align 1, !tbaa !10
  call void @llvm.lifetime.end.p0(i64 8, ptr %5) #8
  ret ptr @Dau_EnumLift.pBuffer
}

; Function Attrs: nounwind uwtable
define void @Dau_EnumCombineThree(ptr noundef %0, i32 noundef %1, ptr noundef %2, ptr noundef %3, ptr noundef %4, i32 noundef %5, i32 noundef %6, i32 noundef %7, i32 noundef %8, i32 noundef %9) #0 {
  %11 = alloca ptr, align 8
  %12 = alloca i32, align 4
  %13 = alloca ptr, align 8
  %14 = alloca ptr, align 8
  %15 = alloca ptr, align 8
  %16 = alloca i32, align 4
  %17 = alloca i32, align 4
  %18 = alloca i32, align 4
  %19 = alloca i32, align 4
  %20 = alloca i32, align 4
  store ptr %0, ptr %11, align 8, !tbaa !14
  store i32 %1, ptr %12, align 4, !tbaa !8
  store ptr %2, ptr %13, align 8, !tbaa !3
  store ptr %3, ptr %14, align 8, !tbaa !3
  store ptr %4, ptr %15, align 8, !tbaa !3
  store i32 %5, ptr %16, align 4, !tbaa !8
  store i32 %6, ptr %17, align 4, !tbaa !8
  store i32 %7, ptr %18, align 4, !tbaa !8
  store i32 %8, ptr %19, align 4, !tbaa !8
  store i32 %9, ptr %20, align 4, !tbaa !8
  %21 = load ptr, ptr %14, align 8, !tbaa !3
  %22 = load i32, ptr %16, align 4, !tbaa !8
  %23 = call ptr @Dau_EnumLift(ptr noundef %21, i32 noundef %22)
  store ptr %23, ptr %14, align 8, !tbaa !3
  %24 = load ptr, ptr %15, align 8, !tbaa !3
  %25 = load i32, ptr %17, align 4, !tbaa !8
  %26 = call ptr @Dau_EnumLift2(ptr noundef %24, i32 noundef %25)
  store ptr %26, ptr %15, align 8, !tbaa !3
  %27 = load i32, ptr %12, align 4, !tbaa !8
  %28 = icmp ne i32 %27, 0
  %29 = select i1 %28, ptr @.str.1, ptr @.str.2
  %30 = load i32, ptr %18, align 4, !tbaa !8
  %31 = icmp ne i32 %30, 0
  %32 = select i1 %31, ptr @.str.3, ptr @.str.2
  %33 = load ptr, ptr %13, align 8, !tbaa !3
  %34 = getelementptr inbounds i8, ptr %33, i64 0
  %35 = load i8, ptr %34, align 1, !tbaa !10
  %36 = sext i8 %35 to i32
  %37 = icmp eq i32 %36, 42
  br i1 %37, label %38, label %41

38:                                               ; preds = %10
  %39 = load ptr, ptr %13, align 8, !tbaa !3
  %40 = getelementptr inbounds i8, ptr %39, i64 1
  br label %43

41:                                               ; preds = %10
  %42 = load ptr, ptr %13, align 8, !tbaa !3
  br label %43

43:                                               ; preds = %41, %38
  %44 = phi ptr [ %40, %38 ], [ %42, %41 ]
  %45 = load i32, ptr %19, align 4, !tbaa !8
  %46 = icmp ne i32 %45, 0
  %47 = select i1 %46, ptr @.str.3, ptr @.str.2
  %48 = load ptr, ptr %14, align 8, !tbaa !3
  %49 = getelementptr inbounds i8, ptr %48, i64 0
  %50 = load i8, ptr %49, align 1, !tbaa !10
  %51 = sext i8 %50 to i32
  %52 = icmp eq i32 %51, 42
  br i1 %52, label %53, label %56

53:                                               ; preds = %43
  %54 = load ptr, ptr %14, align 8, !tbaa !3
  %55 = getelementptr inbounds i8, ptr %54, i64 1
  br label %58

56:                                               ; preds = %43
  %57 = load ptr, ptr %14, align 8, !tbaa !3
  br label %58

58:                                               ; preds = %56, %53
  %59 = phi ptr [ %55, %53 ], [ %57, %56 ]
  %60 = load i32, ptr %20, align 4, !tbaa !8
  %61 = icmp ne i32 %60, 0
  %62 = select i1 %61, ptr @.str.3, ptr @.str.2
  %63 = load ptr, ptr %15, align 8, !tbaa !3
  %64 = getelementptr inbounds i8, ptr %63, i64 0
  %65 = load i8, ptr %64, align 1, !tbaa !10
  %66 = sext i8 %65 to i32
  %67 = icmp eq i32 %66, 42
  br i1 %67, label %68, label %71

68:                                               ; preds = %58
  %69 = load ptr, ptr %15, align 8, !tbaa !3
  %70 = getelementptr inbounds i8, ptr %69, i64 1
  br label %73

71:                                               ; preds = %58
  %72 = load ptr, ptr %15, align 8, !tbaa !3
  br label %73

73:                                               ; preds = %71, %68
  %74 = phi ptr [ %70, %68 ], [ %72, %71 ]
  %75 = call i32 (ptr, ptr, ...) @sprintf(ptr noundef @Dau_EnumCombineThree.pBuffer, ptr noundef @.str.4, ptr noundef %29, i32 noundef 60, ptr noundef %32, ptr noundef %44, ptr noundef %47, ptr noundef %59, ptr noundef %62, ptr noundef %74, i32 noundef 62) #8
  %76 = load ptr, ptr %11, align 8, !tbaa !14
  %77 = call ptr @Abc_UtilStrsav(ptr noundef @Dau_EnumCombineThree.pBuffer)
  call void @Vec_PtrPush(ptr noundef %76, ptr noundef %77)
  ret void
}