; Function Attrs: nounwind uwtable
define void @Dau_EnumCombineThree(ptr noundef captures(none) %0, i32 noundef %1, ptr noundef %2, ptr noundef readonly captures(none) %3, ptr noundef readonly captures(none) %4, i32 noundef %5, i32 noundef %6, i32 noundef %7, i32 noundef %8, i32 noundef %9) local_unnamed_addr #1 {
  %11 = load i8, ptr %3, align 1, !tbaa !3
  %.not12.i = icmp eq i8 %11, 0
  br i1 %.not12.i, label %Dau_EnumLift.exit, label %.lr.ph.i

.lr.ph.i:                                         ; preds = %10
  %12 = trunc i32 %5 to i8
  br label %13

13:                                               ; preds = %13, %.lr.ph.i
  %14 = phi i8 [ %11, %.lr.ph.i ], [ %20, %13 ]
  %.014.i = phi ptr [ @Dau_EnumLift.pBuffer, %.lr.ph.i ], [ %18, %13 ]
  %.0913.i = phi ptr [ %3, %.lr.ph.i ], [ %19, %13 ]
  %15 = add i8 %14, -97
  %or.cond.i = icmp ult i8 %15, 26
  %16 = select i1 %or.cond.i, i8 %12, i8 0
  %17 = add i8 %16, %14
  store i8 %17, ptr %.014.i, align 1, !tbaa !3
  %18 = getelementptr inbounds nuw i8, ptr %.014.i, i64 1
  %19 = getelementptr inbounds nuw i8, ptr %.0913.i, i64 1
  %20 = load i8, ptr %19, align 1, !tbaa !3
  %.not.i = icmp eq i8 %20, 0
  br i1 %.not.i, label %Dau_EnumLift.exit, label %13, !llvm.loop !6

Dau_EnumLift.exit:                                ; preds = %13, %10
  %.0.lcssa.i = phi ptr [ @Dau_EnumLift.pBuffer, %10 ], [ %18, %13 ]
  store i8 0, ptr %.0.lcssa.i, align 1, !tbaa !3
  %21 = load i8, ptr %4, align 1, !tbaa !3
  %.not12.i20 = icmp eq i8 %21, 0
  br i1 %.not12.i20, label %Dau_EnumLift2.exit, label %.lr.ph.i21

.lr.ph.i21:                                       ; preds = %Dau_EnumLift.exit
  %22 = trunc i32 %6 to i8
  br label %23

23:                                               ; preds = %23, %.lr.ph.i21
  %24 = phi i8 [ %21, %.lr.ph.i21 ], [ %30, %23 ]
  %.014.i22 = phi ptr [ @Dau_EnumLift2.pBuffer, %.lr.ph.i21 ], [ %28, %23 ]
  %.0913.i23 = phi ptr [ %4, %.lr.ph.i21 ], [ %29, %23 ]
  %25 = add i8 %24, -97
  %or.cond.i24 = icmp ult i8 %25, 26
  %26 = select i1 %or.cond.i24, i8 %22, i8 0
  %27 = add i8 %26, %24
  store i8 %27, ptr %.014.i22, align 1, !tbaa !3
  %28 = getelementptr inbounds nuw i8, ptr %.014.i22, i64 1
  %29 = getelementptr inbounds nuw i8, ptr %.0913.i23, i64 1
  %30 = load i8, ptr %29, align 1, !tbaa !3
  %.not.i25 = icmp eq i8 %30, 0
  br i1 %.not.i25, label %Dau_EnumLift2.exit, label %23, !llvm.loop !8

Dau_EnumLift2.exit:                               ; preds = %23, %Dau_EnumLift.exit
  %.0.lcssa.i26 = phi ptr [ @Dau_EnumLift2.pBuffer, %Dau_EnumLift.exit ], [ %28, %23 ]
  store i8 0, ptr %.0.lcssa.i26, align 1, !tbaa !3
  %.not = icmp eq i32 %1, 0
  %31 = select i1 %.not, ptr @.str.2, ptr @.str.1
  %.not17 = icmp eq i32 %7, 0
  %32 = select i1 %.not17, ptr @.str.2, ptr @.str.3
  %33 = load i8, ptr %2, align 1, !tbaa !3
  %34 = icmp eq i8 %33, 42
  %.idx = zext i1 %34 to i64
  %35 = getelementptr inbounds nuw i8, ptr %2, i64 %.idx
  %.not18 = icmp eq i32 %8, 0
  %36 = select i1 %.not18, ptr @.str.2, ptr @.str.3
  %37 = load i8, ptr @Dau_EnumLift.pBuffer, align 16, !tbaa !3
  %38 = icmp eq i8 %37, 42
  %39 = select i1 %38, ptr getelementptr inbounds nuw (i8, ptr @Dau_EnumLift.pBuffer, i64 1), ptr @Dau_EnumLift.pBuffer
  %.not19 = icmp eq i32 %9, 0
  %40 = select i1 %.not19, ptr @.str.2, ptr @.str.3
  %41 = load i8, ptr @Dau_EnumLift2.pBuffer, align 16, !tbaa !3
  %42 = icmp eq i8 %41, 42
  %43 = select i1 %42, ptr getelementptr inbounds nuw (i8, ptr @Dau_EnumLift2.pBuffer, i64 1), ptr @Dau_EnumLift2.pBuffer
  %44 = tail call i32 (ptr, ptr, ...) @sprintf(ptr noundef nonnull dereferenceable(1) @Dau_EnumCombineThree.pBuffer, ptr noundef nonnull dereferenceable(1) @.str.4, ptr noundef nonnull %31, i32 noundef 60, ptr noundef nonnull %32, ptr noundef nonnull %35, ptr noundef nonnull %36, ptr noundef nonnull %39, ptr noundef nonnull %40, ptr noundef nonnull %43, i32 noundef 62) #12
  %45 = tail call i64 @strlen(ptr noundef nonnull dereferenceable(1) @Dau_EnumCombineThree.pBuffer) #13
  %46 = add i64 %45, 1
  %47 = tail call noalias ptr @malloc(i64 noundef %46) #14
  %48 = tail call ptr @strcpy(ptr noundef nonnull dereferenceable(1) %47, ptr noundef nonnull dereferenceable(1) @Dau_EnumCombineThree.pBuffer) #12
  %49 = getelementptr inbounds nuw i8, ptr %0, i64 4
  %50 = load i32, ptr %49, align 4, !tbaa !9
  %51 = load i32, ptr %0, align 8, !tbaa !13
  %52 = icmp eq i32 %50, %51
  br i1 %52, label %53, label %.Vec_PtrGrow.exit11_crit_edge.i

.Vec_PtrGrow.exit11_crit_edge.i:                  ; preds = %Dau_EnumLift2.exit
  %.phi.trans.insert.i = getelementptr inbounds nuw i8, ptr %0, i64 8
  %.pre.i = load ptr, ptr %.phi.trans.insert.i, align 8, !tbaa !14
  br label %Vec_PtrPush.exit

53:                                               ; preds = %Dau_EnumLift2.exit
  %54 = icmp slt i32 %50, 16
  br i1 %54, label %55, label %63

55:                                               ; preds = %53
  %56 = getelementptr inbounds nuw i8, ptr %0, i64 8
  %57 = load ptr, ptr %56, align 8, !tbaa !14
  %.not9.i.i = icmp eq ptr %57, null
  br i1 %.not9.i.i, label %60, label %58

58:                                               ; preds = %55
  %59 = tail call dereferenceable_or_null(128) ptr @realloc(ptr noundef nonnull %57, i64 noundef 128) #15
  br label %Vec_PtrGrow.exit.i

60:                                               ; preds = %55
  %61 = tail call noalias dereferenceable_or_null(128) ptr @malloc(i64 noundef 128) #14
  br label %Vec_PtrGrow.exit.i

Vec_PtrGrow.exit.i:                               ; preds = %60, %58
  %62 = phi ptr [ %59, %58 ], [ %61, %60 ]
  store ptr %62, ptr %56, align 8, !tbaa !14
  store i32 16, ptr %0, align 8, !tbaa !13
  br label %Vec_PtrPush.exit

63:                                               ; preds = %53
  %64 = shl nuw nsw i32 %50, 1
  %65 = getelementptr inbounds nuw i8, ptr %0, i64 8
  %66 = load ptr, ptr %65, align 8, !tbaa !14
  %.not9.i10.i = icmp eq ptr %66, null
  %67 = zext nneg i32 %64 to i64
  %68 = shl nuw nsw i64 %67, 3
  br i1 %.not9.i10.i, label %71, label %69

69:                                               ; preds = %63
  %70 = tail call ptr @realloc(ptr noundef nonnull %66, i64 noundef %68) #15
  br label %73

71:                                               ; preds = %63
  %72 = tail call noalias ptr @malloc(i64 noundef %68) #14
  br label %73

73:                                               ; preds = %71, %69
  %74 = phi ptr [ %70, %69 ], [ %72, %71 ]
  store ptr %74, ptr %65, align 8, !tbaa !14
  store i32 %64, ptr %0, align 8, !tbaa !13
  br label %Vec_PtrPush.exit

Vec_PtrPush.exit:                                 ; preds = %.Vec_PtrGrow.exit11_crit_edge.i, %Vec_PtrGrow.exit.i, %73
  %75 = phi ptr [ %.pre.i, %.Vec_PtrGrow.exit11_crit_edge.i ], [ %74, %73 ], [ %62, %Vec_PtrGrow.exit.i ]
  %76 = load i32, ptr %49, align 4, !tbaa !9
  %77 = add nsw i32 %76, 1
  store i32 %77, ptr %49, align 4, !tbaa !9
  %78 = sext i32 %76 to i64
  %79 = getelementptr inbounds ptr, ptr %75, i64 %78
  store ptr %47, ptr %79, align 8, !tbaa !15
  ret void
}